(lp1
F185
aF213
aF253
aF283
aF311
aF340
aF390
aF440
aF498
aF540
aI600
aI700
aI824
aI881
aI889
aI911
aI977
aI1005
aI1099
aI1129
aI1150
aI1180
acnumpy.core.multiarray
scalar
p2
(cnumpy
dtype
p3
(S'f8'
I0
I1
tRp4
(I3
S'<'
NNNI-1
I-1
I0
tbS'\xd7\xa3p=\n\xf1\x93@'
tRp5
ag2
(g4
S'\xd7\xa3p=\n\xcd\x9a@'
tRp6
a.